; Function Attrs: mustprogress nofree norecurse nosync nounwind willreturn memory(argmem: write) uwtable
define hidden void @_ZN2cv3ccm13REC_2020_RGB_12setParameterEv(ptr noundef nonnull writeonly align 8 captures(none) dereferenceable(488) initializes((200, 248), (440, 456)) %0) unnamed_addr #11 align 2 {
  %2 = getelementptr inbounds nuw i8, ptr %0, i64 200
  store double 0x3FE6A7EF9DB22D0E, ptr %2, align 8, !tbaa !50
  %3 = getelementptr inbounds nuw i8, ptr %0, i64 208
  store double 2.920000e-01, ptr %3, align 8, !tbaa !53
  %4 = getelementptr inbounds nuw i8, ptr %0, i64 216
  store double 1.700000e-01, ptr %4, align 8, !tbaa !69
  %5 = getelementptr inbounds nuw i8, ptr %0, i64 224
  store double 7.970000e-01, ptr %5, align 8, !tbaa !70
  %6 = getelementptr inbounds nuw i8, ptr %0, i64 232
  store double 1.310000e-01, ptr %6, align 8, !tbaa !71
  %7 = getelementptr inbounds nuw i8, ptr %0, i64 240
  store double 4.600000e-02, ptr %7, align 8, !tbaa !72
  %8 = getelementptr inbounds nuw i8, ptr %0, i64 440
  store double 0x3FB96B844FBE3D2B, ptr %8, align 8, !tbaa !127
  %9 = getelementptr inbounds nuw i8, ptr %0, i64 448
  store double 0x4001C71C71C71C72, ptr %9, align 8, !tbaa !130
  ret void
}